target datalayout = "e-m:e-p270:32:32-p271:32:32-p272:64:64-i64:64-i128:128-f80:128-n8:16:32:64-S128"
target triple = "x86_64-pc-linux-gnu"

%struct.___itt_global = type { [8 x i8], i64, i64, i64, i64, i64, i64, %union.pthread_mutex_t, ptr, ptr, ptr, ptr, ptr, ptr, ptr, ptr, i32, ptr, i32, ptr, ptr }
%union.pthread_mutex_t = type { %struct.__pthread_mutex_s }
%struct.__pthread_mutex_s = type { i32, i32, i32, i32, i32, i16, i16, %struct.__pthread_internal_list }
%struct.__pthread_internal_list = type { ptr, ptr }

@__itt_thr_mode_set_ptr__3_0 = global ptr @_ZL27__itt_thr_mode_set_init_3_014__itt_thr_prop15__itt_thr_state, align 8

; Function Attrs: mustprogress sspstrong uwtable
define internal noundef i32 @_ZL27__itt_thr_mode_set_init_3_014__itt_thr_prop15__itt_thr_state(i32 noundef %0, i32 noundef %1) #0 {
  %3 = alloca i32, align 4
  %4 = alloca i32, align 4
  %5 = alloca i32, align 4
  store i32 %0, ptr %4, align 4, !tbaa !49
  store i32 %1, ptr %5, align 4, !tbaa !51
  %6 = load volatile i64, ptr getelementptr inbounds nuw (%struct.___itt_global, ptr @__itt__ittapi_global, i32 0, i32 4), align 8, !tbaa !3
  %7 = icmp ne i64 %6, 0
  br i1 %7, label %12, label %8

8:                                                ; preds = %2
  %9 = load ptr, ptr getelementptr inbounds nuw (%struct.___itt_global, ptr @__itt__ittapi_global, i32 0, i32 13), align 8, !tbaa !21
  %10 = icmp eq ptr %9, null
  br i1 %10, label %11, label %12

11:                                               ; preds = %8
  call void @ITT_DoOneTimeInitialization()
  br label %12

12:                                               ; preds = %11, %8, %2
  %13 = load ptr, ptr @__itt_thr_mode_set_ptr__3_0, align 8, !tbaa !22
  %14 = icmp ne ptr %13, null
  br i1 %14, label %15, label %23

15:                                               ; preds = %12
  %16 = load ptr, ptr @__itt_thr_mode_set_ptr__3_0, align 8, !tbaa !22
  %17 = icmp ne ptr %16, @_ZL27__itt_thr_mode_set_init_3_014__itt_thr_prop15__itt_thr_state
  br i1 %17, label %18, label %23

18:                                               ; preds = %15
  %19 = load ptr, ptr @__itt_thr_mode_set_ptr__3_0, align 8, !tbaa !22
  %20 = load i32, ptr %4, align 4, !tbaa !49
  %21 = load i32, ptr %5, align 4, !tbaa !51
  %22 = call i32 %19(i32 noundef %20, i32 noundef %21)
  store i32 %22, ptr %3, align 4
  br label %24

23:                                               ; preds = %15, %12
  store i32 0, ptr %3, align 4
  br label %24

24:                                               ; preds = %23, %18
  %25 = load i32, ptr %3, align 4
  ret i32 %25
}